; Function Attrs: nounwind uwtable
define hidden void @zif_headers_list(ptr noundef readonly captures(none) %0, ptr noundef %1) local_unnamed_addr #0 {
  %3 = getelementptr inbounds nuw i8, ptr %0, i64 44
  %4 = load i32, ptr %3, align 4, !tbaa !8
  %.not = icmp eq i32 %4, 0
  br i1 %.not, label %6, label %5, !prof !10

5:                                                ; preds = %2
  tail call void @zend_wrong_parameters_none_error() #10
  br label %9

6:                                                ; preds = %2
  %7 = tail call ptr @_zend_new_array_0() #10
  store ptr %7, ptr %1, align 8, !tbaa !8
  %8 = getelementptr inbounds nuw i8, ptr %1, i64 8
  store i32 775, ptr %8, align 8, !tbaa !8
  tail call void @zend_llist_apply_with_argument(ptr noundef nonnull getelementptr inbounds nuw (i8, ptr @sapi_globals, i64 160), ptr noundef nonnull @php_head_apply_header_list_to_hash, ptr noundef nonnull %1) #10
  br label %9

9:                                                ; preds = %6, %5
  ret void
}